target datalayout = "e-m:e-p270:32:32-p271:32:32-p272:64:64-i64:64-i128:128-f80:128-n8:16:32:64-S128"
target triple = "x86_64-pc-linux-gnu"

%struct.lua_TValue = type { %union.Value, [1 x i32], i32 }
%union.Value = type { ptr }
%struct.LuaTable = type { i8, i8, i8, i8, i8, i8, i8, i8, i32, %union.anon, ptr, ptr, ptr, ptr }
%union.anon = type { i32 }
%struct.LuaNode = type { %struct.lua_TValue, %struct.TKey }
%struct.TKey = type { %union.Value, [1 x i32], i32 }

@.str.3 = private unnamed_addr constant [22 x i8] c"invalid key to 'next'\00", align 1

; Function Attrs: mustprogress nounwind uwtable
define internal noundef i32 @_ZL10arrayindexd(double noundef %0) #4 {
  %2 = alloca double, align 8
  %3 = alloca i32, align 4
  store double %0, ptr %2, align 8, !tbaa !74
  call void @llvm.lifetime.start.p0(i64 4, ptr %3) #7
  %4 = load double, ptr %2, align 8, !tbaa !74
  %5 = fptosi double %4 to i32
  store i32 %5, ptr %3, align 4, !tbaa !13
  %6 = load i32, ptr %3, align 4, !tbaa !13
  %7 = sitofp i32 %6 to double
  %8 = load double, ptr %2, align 8, !tbaa !74
  %9 = fcmp oeq double %7, %8
  br i1 %9, label %10, label %12

10:                                               ; preds = %1
  %11 = load i32, ptr %3, align 4, !tbaa !13
  br label %13

12:                                               ; preds = %1
  br label %13

13:                                               ; preds = %12, %10
  %14 = phi i32 [ %11, %10 ], [ -1, %12 ]
  call void @llvm.lifetime.end.p0(i64 4, ptr %3) #7
  ret i32 %14
}

; Function Attrs: mustprogress uwtable
define internal noundef i32 @_ZL9findindexP9lua_StateP8LuaTableP10lua_TValue(ptr noundef %0, ptr noundef %1, ptr noundef %2) #0 {
  %4 = alloca i32, align 4
  %5 = alloca ptr, align 8
  %6 = alloca ptr, align 8
  %7 = alloca ptr, align 8
  %8 = alloca i32, align 4
  %9 = alloca i32, align 4
  %10 = alloca ptr, align 8
  store ptr %0, ptr %5, align 8, !tbaa !4
  store ptr %1, ptr %6, align 8, !tbaa !9
  store ptr %2, ptr %7, align 8, !tbaa !11
  call void @llvm.lifetime.start.p0(i64 4, ptr %8) #7
  %11 = load ptr, ptr %7, align 8, !tbaa !11
  %12 = getelementptr inbounds nuw %struct.lua_TValue, ptr %11, i32 0, i32 2
  %13 = load i32, ptr %12, align 4, !tbaa !20
  %14 = icmp eq i32 %13, 0
  br i1 %14, label %15, label %16

15:                                               ; preds = %3
  store i32 -1, ptr %4, align 4
  store i32 1, ptr %9, align 4
  br label %106

16:                                               ; preds = %3
  %17 = load ptr, ptr %7, align 8, !tbaa !11
  %18 = getelementptr inbounds nuw %struct.lua_TValue, ptr %17, i32 0, i32 2
  %19 = load i32, ptr %18, align 4, !tbaa !20
  %20 = icmp eq i32 %19, 3
  br i1 %20, label %21, label %26

21:                                               ; preds = %16
  %22 = load ptr, ptr %7, align 8, !tbaa !11
  %23 = getelementptr inbounds nuw %struct.lua_TValue, ptr %22, i32 0, i32 0
  %24 = load double, ptr %23, align 8, !tbaa !22
  %25 = call noundef i32 @_ZL10arrayindexd(double noundef %24)
  br label %27

26:                                               ; preds = %16
  br label %27

27:                                               ; preds = %26, %21
  %28 = phi i32 [ %25, %21 ], [ -1, %26 ]
  store i32 %28, ptr %8, align 4, !tbaa !13
  %29 = load i32, ptr %8, align 4, !tbaa !13
  %30 = icmp slt i32 0, %29
  br i1 %30, label %31, label %40

31:                                               ; preds = %27
  %32 = load i32, ptr %8, align 4, !tbaa !13
  %33 = load ptr, ptr %6, align 8, !tbaa !9
  %34 = getelementptr inbounds nuw %struct.LuaTable, ptr %33, i32 0, i32 8
  %35 = load i32, ptr %34, align 8, !tbaa !15
  %36 = icmp sle i32 %32, %35
  br i1 %36, label %37, label %40

37:                                               ; preds = %31
  %38 = load i32, ptr %8, align 4, !tbaa !13
  %39 = sub nsw i32 %38, 1
  store i32 %39, ptr %4, align 4
  store i32 1, ptr %9, align 4
  br label %106

40:                                               ; preds = %31, %27
  call void @llvm.lifetime.start.p0(i64 8, ptr %10) #7
  %41 = load ptr, ptr %6, align 8, !tbaa !9
  %42 = load ptr, ptr %7, align 8, !tbaa !11
  %43 = call noundef ptr @_ZL12mainpositionPK8LuaTablePK10lua_TValue(ptr noundef %41, ptr noundef %42)
  store ptr %43, ptr %10, align 8, !tbaa !31
  br label %44

44:                                               ; preds = %95, %40
  %45 = load ptr, ptr %10, align 8, !tbaa !31
  %46 = getelementptr inbounds nuw %struct.LuaNode, ptr %45, i32 0, i32 1
  %47 = load ptr, ptr %7, align 8, !tbaa !11
  %48 = call noundef i32 @_Z16luaO_rawequalKeyPK4TKeyPK10lua_TValue(ptr noundef %46, ptr noundef %47)
  %49 = icmp ne i32 %48, 0
  br i1 %49, label %71, label %50

50:                                               ; preds = %44
  %51 = load ptr, ptr %10, align 8, !tbaa !31
  %52 = getelementptr inbounds nuw %struct.LuaNode, ptr %51, i32 0, i32 1
  %53 = getelementptr inbounds nuw %struct.TKey, ptr %52, i32 0, i32 2
  %54 = load i32, ptr %53, align 4
  %55 = and i32 %54, 15
  %56 = icmp eq i32 %55, 13
  br i1 %56, label %57, label %87

57:                                               ; preds = %50
  %58 = load ptr, ptr %7, align 8, !tbaa !11
  %59 = getelementptr inbounds nuw %struct.lua_TValue, ptr %58, i32 0, i32 2
  %60 = load i32, ptr %59, align 4, !tbaa !20
  %61 = icmp sge i32 %60, 5
  br i1 %61, label %62, label %87

62:                                               ; preds = %57
  %63 = load ptr, ptr %10, align 8, !tbaa !31
  %64 = getelementptr inbounds nuw %struct.LuaNode, ptr %63, i32 0, i32 1
  %65 = getelementptr inbounds nuw %struct.TKey, ptr %64, i32 0, i32 0
  %66 = load ptr, ptr %65, align 8, !tbaa !22
  %67 = load ptr, ptr %7, align 8, !tbaa !11
  %68 = getelementptr inbounds nuw %struct.lua_TValue, ptr %67, i32 0, i32 0
  %69 = load ptr, ptr %68, align 8, !tbaa !22
  %70 = icmp eq ptr %66, %69
  br i1 %70, label %71, label %87

71:                                               ; preds = %62, %44
  %72 = load ptr, ptr %10, align 8, !tbaa !31
  %73 = load ptr, ptr %6, align 8, !tbaa !9
  %74 = getelementptr inbounds nuw %struct.LuaTable, ptr %73, i32 0, i32 12
  %75 = load ptr, ptr %74, align 8, !tbaa !27
  %76 = getelementptr inbounds %struct.LuaNode, ptr %75, i64 0
  %77 = ptrtoint ptr %72 to i64
  %78 = ptrtoint ptr %76 to i64
  %79 = sub i64 %77, %78
  %80 = sdiv exact i64 %79, 32
  %81 = trunc i64 %80 to i32
  store i32 %81, ptr %8, align 4, !tbaa !13
  %82 = load i32, ptr %8, align 4, !tbaa !13
  %83 = load ptr, ptr %6, align 8, !tbaa !9
  %84 = getelementptr inbounds nuw %struct.LuaTable, ptr %83, i32 0, i32 8
  %85 = load i32, ptr %84, align 8, !tbaa !15
  %86 = add nsw i32 %82, %85
  store i32 %86, ptr %4, align 4
  store i32 1, ptr %9, align 4
  call void @llvm.lifetime.end.p0(i64 8, ptr %10) #7
  br label %106

87:                                               ; preds = %62, %57, %50
  %88 = load ptr, ptr %10, align 8, !tbaa !31
  %89 = getelementptr inbounds nuw %struct.LuaNode, ptr %88, i32 0, i32 1
  %90 = getelementptr inbounds nuw %struct.TKey, ptr %89, i32 0, i32 2
  %91 = load i32, ptr %90, align 4
  %92 = ashr i32 %91, 4
  %93 = icmp eq i32 %92, 0
  br i1 %93, label %94, label %95

94:                                               ; preds = %87
  br label %104

95:                                               ; preds = %87
  %96 = load ptr, ptr %10, align 8, !tbaa !31
  %97 = getelementptr inbounds nuw %struct.LuaNode, ptr %96, i32 0, i32 1
  %98 = getelementptr inbounds nuw %struct.TKey, ptr %97, i32 0, i32 2
  %99 = load i32, ptr %98, align 4
  %100 = ashr i32 %99, 4
  %101 = load ptr, ptr %10, align 8, !tbaa !31
  %102 = sext i32 %100 to i64
  %103 = getelementptr inbounds %struct.LuaNode, ptr %101, i64 %102
  store ptr %103, ptr %10, align 8, !tbaa !31
  br label %44, !llvm.loop !34

104:                                              ; preds = %94
  %105 = load ptr, ptr %5, align 8, !tbaa !4
  call void (ptr, ptr, ...) @_Z14luaG_runerrorLP9lua_StatePKcz(ptr noundef %105, ptr noundef @.str.3) #8
  unreachable

106:                                              ; preds = %71, %37, %15
  call void @llvm.lifetime.end.p0(i64 4, ptr %8) #7
  %107 = load i32, ptr %4, align 4
  ret i32 %107
}

; Function Attrs: mustprogress uwtable
define hidden noundef i32 @_Z9luaH_nextP9lua_StateP8LuaTableP10lua_TValue(ptr noundef %0, ptr noundef %1, ptr noundef %2) #0 {
  %4 = alloca i32, align 4
  %5 = alloca ptr, align 8
  %6 = alloca ptr, align 8
  %7 = alloca ptr, align 8
  %8 = alloca i32, align 4
  %9 = alloca ptr, align 8
  %10 = alloca ptr, align 8
  %11 = alloca ptr, align 8
  %12 = alloca i32, align 4
  %13 = alloca ptr, align 8
  %14 = alloca ptr, align 8
  %15 = alloca ptr, align 8
  %16 = alloca ptr, align 8
  store ptr %0, ptr %5, align 8, !tbaa !4
  store ptr %1, ptr %6, align 8, !tbaa !9
  store ptr %2, ptr %7, align 8, !tbaa !11
  call void @llvm.lifetime.start.p0(i64 4, ptr %8) #7
  %17 = load ptr, ptr %5, align 8, !tbaa !4
  %18 = load ptr, ptr %6, align 8, !tbaa !9
  %19 = load ptr, ptr %7, align 8, !tbaa !11
  %20 = call noundef i32 @_ZL9findindexP9lua_StateP8LuaTableP10lua_TValue(ptr noundef %17, ptr noundef %18, ptr noundef %19)
  store i32 %20, ptr %8, align 4, !tbaa !13
  %21 = load i32, ptr %8, align 4, !tbaa !13
  %22 = add nsw i32 %21, 1
  store i32 %22, ptr %8, align 4, !tbaa !13
  br label %23

23:                                               ; preds = %59, %3
  %24 = load i32, ptr %8, align 4, !tbaa !13
  %25 = load ptr, ptr %6, align 8, !tbaa !9
  %26 = getelementptr inbounds nuw %struct.LuaTable, ptr %25, i32 0, i32 8
  %27 = load i32, ptr %26, align 8, !tbaa !15
  %28 = icmp slt i32 %24, %27
  br i1 %28, label %29, label %62

29:                                               ; preds = %23
  %30 = load ptr, ptr %6, align 8, !tbaa !9
  %31 = getelementptr inbounds nuw %struct.LuaTable, ptr %30, i32 0, i32 11
  %32 = load ptr, ptr %31, align 8, !tbaa !19
  %33 = load i32, ptr %8, align 4, !tbaa !13
  %34 = sext i32 %33 to i64
  %35 = getelementptr inbounds %struct.lua_TValue, ptr %32, i64 %34
  %36 = getelementptr inbounds nuw %struct.lua_TValue, ptr %35, i32 0, i32 2
  %37 = load i32, ptr %36, align 4, !tbaa !20
  %38 = icmp eq i32 %37, 0
  br i1 %38, label %58, label %39

39:                                               ; preds = %29
  call void @llvm.lifetime.start.p0(i64 8, ptr %9) #7
  %40 = load ptr, ptr %7, align 8, !tbaa !11
  store ptr %40, ptr %9, align 8, !tbaa !11
  %41 = load i32, ptr %8, align 4, !tbaa !13
  %42 = add nsw i32 %41, 1
  %43 = sitofp i32 %42 to double
  %44 = load ptr, ptr %9, align 8, !tbaa !11
  %45 = getelementptr inbounds nuw %struct.lua_TValue, ptr %44, i32 0, i32 0
  store double %43, ptr %45, align 8, !tbaa !22
  %46 = load ptr, ptr %9, align 8, !tbaa !11
  %47 = getelementptr inbounds nuw %struct.lua_TValue, ptr %46, i32 0, i32 2
  store i32 3, ptr %47, align 4, !tbaa !20
  call void @llvm.lifetime.end.p0(i64 8, ptr %9) #7
  call void @llvm.lifetime.start.p0(i64 8, ptr %10) #7
  %48 = load ptr, ptr %6, align 8, !tbaa !9
  %49 = getelementptr inbounds nuw %struct.LuaTable, ptr %48, i32 0, i32 11
  %50 = load ptr, ptr %49, align 8, !tbaa !19
  %51 = load i32, ptr %8, align 4, !tbaa !13
  %52 = sext i32 %51 to i64
  %53 = getelementptr inbounds %struct.lua_TValue, ptr %50, i64 %52
  store ptr %53, ptr %10, align 8, !tbaa !11
  call void @llvm.lifetime.start.p0(i64 8, ptr %11) #7
  %54 = load ptr, ptr %7, align 8, !tbaa !11
  %55 = getelementptr inbounds %struct.lua_TValue, ptr %54, i64 1
  store ptr %55, ptr %11, align 8, !tbaa !11
  %56 = load ptr, ptr %10, align 8, !tbaa !11
  %57 = load ptr, ptr %11, align 8, !tbaa !11
  call void @llvm.memcpy.p0.p0.i64(ptr align 8 %57, ptr align 8 %56, i64 16, i1 false), !tbaa.struct !23
  call void @llvm.lifetime.end.p0(i64 8, ptr %11) #7
  call void @llvm.lifetime.end.p0(i64 8, ptr %10) #7
  store i32 1, ptr %4, align 4
  store i32 1, ptr %12, align 4
  br label %130

58:                                               ; preds = %29
  br label %59

59:                                               ; preds = %58
  %60 = load i32, ptr %8, align 4, !tbaa !13
  %61 = add nsw i32 %60, 1
  store i32 %61, ptr %8, align 4, !tbaa !13
  br label %23, !llvm.loop !24

62:                                               ; preds = %23
  %63 = load ptr, ptr %6, align 8, !tbaa !9
  %64 = getelementptr inbounds nuw %struct.LuaTable, ptr %63, i32 0, i32 8
  %65 = load i32, ptr %64, align 8, !tbaa !15
  %66 = load i32, ptr %8, align 4, !tbaa !13
  %67 = sub nsw i32 %66, %65
  store i32 %67, ptr %8, align 4, !tbaa !13
  br label %68

68:                                               ; preds = %126, %62
  %69 = load i32, ptr %8, align 4, !tbaa !13
  %70 = load ptr, ptr %6, align 8, !tbaa !9
  %71 = getelementptr inbounds nuw %struct.LuaTable, ptr %70, i32 0, i32 6
  %72 = load i8, ptr %71, align 2, !tbaa !26
  %73 = zext i8 %72 to i32
  %74 = shl i32 1, %73
  %75 = icmp slt i32 %69, %74
  br i1 %75, label %76, label %129

76:                                               ; preds = %68
  %77 = load ptr, ptr %6, align 8, !tbaa !9
  %78 = getelementptr inbounds nuw %struct.LuaTable, ptr %77, i32 0, i32 12
  %79 = load ptr, ptr %78, align 8, !tbaa !27
  %80 = load i32, ptr %8, align 4, !tbaa !13
  %81 = sext i32 %80 to i64
  %82 = getelementptr inbounds %struct.LuaNode, ptr %79, i64 %81
  %83 = getelementptr inbounds nuw %struct.LuaNode, ptr %82, i32 0, i32 0
  %84 = getelementptr inbounds nuw %struct.lua_TValue, ptr %83, i32 0, i32 2
  %85 = load i32, ptr %84, align 4, !tbaa !28
  %86 = icmp eq i32 %85, 0
  br i1 %86, label %125, label %87

87:                                               ; preds = %76
  call void @llvm.lifetime.start.p0(i64 8, ptr %13) #7
  %88 = load ptr, ptr %7, align 8, !tbaa !11
  store ptr %88, ptr %13, align 8, !tbaa !11
  call void @llvm.lifetime.start.p0(i64 8, ptr %14) #7
  %89 = load ptr, ptr %6, align 8, !tbaa !9
  %90 = getelementptr inbounds nuw %struct.LuaTable, ptr %89, i32 0, i32 12
  %91 = load ptr, ptr %90, align 8, !tbaa !27
  %92 = load i32, ptr %8, align 4, !tbaa !13
  %93 = sext i32 %92 to i64
  %94 = getelementptr inbounds %struct.LuaNode, ptr %91, i64 %93
  store ptr %94, ptr %14, align 8, !tbaa !31
  %95 = load ptr, ptr %14, align 8, !tbaa !31
  %96 = getelementptr inbounds nuw %struct.LuaNode, ptr %95, i32 0, i32 1
  %97 = getelementptr inbounds nuw %struct.TKey, ptr %96, i32 0, i32 0
  %98 = load ptr, ptr %13, align 8, !tbaa !11
  %99 = getelementptr inbounds nuw %struct.lua_TValue, ptr %98, i32 0, i32 0
  call void @llvm.memcpy.p0.p0.i64(ptr align 8 %99, ptr align 8 %97, i64 8, i1 false), !tbaa.struct !32
  %100 = load ptr, ptr %13, align 8, !tbaa !11
  %101 = getelementptr inbounds nuw %struct.lua_TValue, ptr %100, i32 0, i32 1
  %102 = getelementptr inbounds [1 x i32], ptr %101, i64 0, i64 0
  %103 = load ptr, ptr %14, align 8, !tbaa !31
  %104 = getelementptr inbounds nuw %struct.LuaNode, ptr %103, i32 0, i32 1
  %105 = getelementptr inbounds nuw %struct.TKey, ptr %104, i32 0, i32 1
  %106 = getelementptr inbounds [1 x i32], ptr %105, i64 0, i64 0
  call void @llvm.memcpy.p0.p0.i64(ptr align 8 %102, ptr align 8 %106, i64 4, i1 false)
  %107 = load ptr, ptr %14, align 8, !tbaa !31
  %108 = getelementptr inbounds nuw %struct.LuaNode, ptr %107, i32 0, i32 1
  %109 = getelementptr inbounds nuw %struct.TKey, ptr %108, i32 0, i32 2
  %110 = load i32, ptr %109, align 4
  %111 = and i32 %110, 15
  %112 = load ptr, ptr %13, align 8, !tbaa !11
  %113 = getelementptr inbounds nuw %struct.lua_TValue, ptr %112, i32 0, i32 2
  store i32 %111, ptr %113, align 4, !tbaa !20
  call void @llvm.lifetime.end.p0(i64 8, ptr %14) #7
  call void @llvm.lifetime.end.p0(i64 8, ptr %13) #7
  call void @llvm.lifetime.start.p0(i64 8, ptr %15) #7
  %114 = load ptr, ptr %6, align 8, !tbaa !9
  %115 = getelementptr inbounds nuw %struct.LuaTable, ptr %114, i32 0, i32 12
  %116 = load ptr, ptr %115, align 8, !tbaa !27
  %117 = load i32, ptr %8, align 4, !tbaa !13
  %118 = sext i32 %117 to i64
  %119 = getelementptr inbounds %struct.LuaNode, ptr %116, i64 %118
  %120 = getelementptr inbounds nuw %struct.LuaNode, ptr %119, i32 0, i32 0
  store ptr %120, ptr %15, align 8, !tbaa !11
  call void @llvm.lifetime.start.p0(i64 8, ptr %16) #7
  %121 = load ptr, ptr %7, align 8, !tbaa !11
  %122 = getelementptr inbounds %struct.lua_TValue, ptr %121, i64 1
  store ptr %122, ptr %16, align 8, !tbaa !11
  %123 = load ptr, ptr %15, align 8, !tbaa !11
  %124 = load ptr, ptr %16, align 8, !tbaa !11
  call void @llvm.memcpy.p0.p0.i64(ptr align 8 %124, ptr align 8 %123, i64 16, i1 false), !tbaa.struct !23
  call void @llvm.lifetime.end.p0(i64 8, ptr %16) #7
  call void @llvm.lifetime.end.p0(i64 8, ptr %15) #7
  store i32 1, ptr %4, align 4
  store i32 1, ptr %12, align 4
  br label %130

125:                                              ; preds = %76
  br label %126

126:                                              ; preds = %125
  %127 = load i32, ptr %8, align 4, !tbaa !13
  %128 = add nsw i32 %127, 1
  store i32 %128, ptr %8, align 4, !tbaa !13
  br label %68, !llvm.loop !33

129:                                              ; preds = %68
  store i32 0, ptr %4, align 4
  store i32 1, ptr %12, align 4
  br label %130

130:                                              ; preds = %129, %87, %39
  call void @llvm.lifetime.end.p0(i64 4, ptr %8) #7
  %131 = load i32, ptr %4, align 4
  ret i32 %131
}