; Function Attrs: mustprogress uwtable
define hidden noundef range(i32 0, 2) i32 @_Z9luaH_nextP9lua_StateP8LuaTableP10lua_TValue(ptr noundef %0, ptr noundef readonly captures(none) %1, ptr noundef %2) local_unnamed_addr #0 {
  %4 = getelementptr inbounds nuw i8, ptr %2, i64 12
  %5 = load i32, ptr %4, align 4, !tbaa !4
  switch i32 %5, label %.thread.i [
    i32 0, label %._ZL9findindexP9lua_StateP8LuaTableP10lua_TValue.exit_crit_edge
    i32 3, label %6
  ]

._ZL9findindexP9lua_StateP8LuaTableP10lua_TValue.exit_crit_edge: ; preds = %3
  %.phi.trans.insert = getelementptr inbounds nuw i8, ptr %1, i64 8
  %.pre = load i32, ptr %.phi.trans.insert, align 8, !tbaa !9
  br label %_ZL9findindexP9lua_StateP8LuaTableP10lua_TValue.exit

6:                                                ; preds = %3
  %7 = load double, ptr %2, align 8, !tbaa !16
  %8 = fptosi double %7 to i32
  %9 = sitofp i32 %8 to double
  %10 = fcmp oeq double %7, %9
  %11 = icmp sgt i32 %8, 0
  %or.cond.i = and i1 %11, %10
  br i1 %or.cond.i, label %12, label %.thread.i

12:                                               ; preds = %6
  %13 = getelementptr inbounds nuw i8, ptr %1, i64 8
  %14 = load i32, ptr %13, align 8, !tbaa !9
  %.not.i = icmp slt i32 %14, %8
  br i1 %.not.i, label %.thread.i, label %15

15:                                               ; preds = %12
  %16 = add nsw i32 %8, -1
  br label %_ZL9findindexP9lua_StateP8LuaTableP10lua_TValue.exit

.thread.i:                                        ; preds = %12, %6, %3
  %17 = tail call fastcc noundef ptr @_ZL12mainpositionPK8LuaTablePK10lua_TValue(ptr noundef readonly %1, ptr noundef nonnull %2)
  %18 = getelementptr inbounds nuw i8, ptr %17, i64 16
  %19 = tail call noundef i32 @_Z16luaO_rawequalKeyPK4TKeyPK10lua_TValue(ptr noundef nonnull %18, ptr noundef nonnull %2)
  %.not2729.i = icmp eq i32 %19, 0
  br i1 %.not2729.i, label %.lr.ph.i, label %._crit_edge.i

.lr.ph.i:                                         ; preds = %.thread.i, %44
  %20 = phi ptr [ %48, %44 ], [ %18, %.thread.i ]
  %.030.i = phi ptr [ %47, %44 ], [ %17, %.thread.i ]
  %21 = getelementptr inbounds nuw i8, ptr %.030.i, i64 28
  %22 = load i32, ptr %21, align 4
  %23 = and i32 %22, 15
  %24 = icmp eq i32 %23, 13
  br i1 %24, label %25, label %42

25:                                               ; preds = %.lr.ph.i
  %26 = load i32, ptr %4, align 4, !tbaa !4
  %27 = icmp sgt i32 %26, 4
  br i1 %27, label %28, label %42

28:                                               ; preds = %25
  %29 = load ptr, ptr %20, align 8, !tbaa !16
  %30 = load ptr, ptr %2, align 8, !tbaa !16
  %31 = icmp eq ptr %29, %30
  br i1 %31, label %._crit_edge.i, label %42

._crit_edge.i:                                    ; preds = %44, %28, %.thread.i
  %.0.lcssa.i = phi ptr [ %17, %.thread.i ], [ %47, %44 ], [ %.030.i, %28 ]
  %32 = getelementptr inbounds nuw i8, ptr %1, i64 32
  %33 = load ptr, ptr %32, align 8, !tbaa !17
  %34 = ptrtoint ptr %.0.lcssa.i to i64
  %35 = ptrtoint ptr %33 to i64
  %36 = sub i64 %34, %35
  %37 = lshr exact i64 %36, 5
  %38 = trunc i64 %37 to i32
  %39 = getelementptr inbounds nuw i8, ptr %1, i64 8
  %40 = load i32, ptr %39, align 8, !tbaa !9
  %41 = add nsw i32 %40, %38
  br label %_ZL9findindexP9lua_StateP8LuaTableP10lua_TValue.exit

42:                                               ; preds = %28, %25, %.lr.ph.i
  %43 = icmp ult i32 %22, 16
  br i1 %43, label %50, label %44

44:                                               ; preds = %42
  %45 = ashr i32 %22, 4
  %46 = sext i32 %45 to i64
  %47 = getelementptr inbounds %struct.LuaNode, ptr %.030.i, i64 %46
  %48 = getelementptr inbounds nuw i8, ptr %47, i64 16
  %49 = tail call noundef i32 @_Z16luaO_rawequalKeyPK4TKeyPK10lua_TValue(ptr noundef nonnull %48, ptr noundef nonnull %2)
  %.not27.i = icmp eq i32 %49, 0
  br i1 %.not27.i, label %.lr.ph.i, label %._crit_edge.i, !llvm.loop !18

50:                                               ; preds = %42
  tail call void (ptr, ptr, ...) @_Z14luaG_runerrorLP9lua_StatePKcz(ptr noundef %0, ptr noundef nonnull @.str.3) #10
  unreachable

_ZL9findindexP9lua_StateP8LuaTableP10lua_TValue.exit: ; preds = %._ZL9findindexP9lua_StateP8LuaTableP10lua_TValue.exit_crit_edge, %15, %._crit_edge.i
  %51 = phi i32 [ %14, %15 ], [ %40, %._crit_edge.i ], [ %.pre, %._ZL9findindexP9lua_StateP8LuaTableP10lua_TValue.exit_crit_edge ]
  %.023.i = phi i32 [ %16, %15 ], [ %41, %._crit_edge.i ], [ -1, %._ZL9findindexP9lua_StateP8LuaTableP10lua_TValue.exit_crit_edge ]
  %52 = getelementptr inbounds nuw i8, ptr %1, i64 24
  %53 = sext i32 %.023.i to i64
  %54 = sext i32 %51 to i64
  %55 = add i32 %.023.i, 1
  %56 = sub i32 %55, %51
  br label %57

57:                                               ; preds = %59, %_ZL9findindexP9lua_StateP8LuaTableP10lua_TValue.exit
  %indvars.iv57 = phi i32 [ %indvars.iv.next58, %59 ], [ %56, %_ZL9findindexP9lua_StateP8LuaTableP10lua_TValue.exit ]
  %indvars.iv = phi i64 [ %indvars.iv.next, %59 ], [ %53, %_ZL9findindexP9lua_StateP8LuaTableP10lua_TValue.exit ]
  %indvars.iv.next = add nsw i64 %indvars.iv, 1
  %58 = icmp slt i64 %indvars.iv.next, %54
  br i1 %58, label %59, label %70

59:                                               ; preds = %57
  %60 = load ptr, ptr %52, align 8, !tbaa !20
  %61 = getelementptr inbounds %struct.lua_TValue, ptr %60, i64 %indvars.iv.next, i32 2
  %62 = load i32, ptr %61, align 4, !tbaa !4
  %63 = icmp eq i32 %62, 0
  %indvars.iv.next58 = add i32 %indvars.iv57, 1
  br i1 %63, label %57, label %64, !llvm.loop !21

64:                                               ; preds = %59
  %65 = trunc nsw i64 %indvars.iv to i32
  %66 = add nsw i32 %65, 2
  %67 = sitofp i32 %66 to double
  store double %67, ptr %2, align 8, !tbaa !16
  store i32 3, ptr %4, align 4, !tbaa !4
  %68 = load ptr, ptr %52, align 8, !tbaa !20
  %69 = getelementptr inbounds %struct.lua_TValue, ptr %68, i64 %indvars.iv.next
  br label %.loopexit.sink.split

70:                                               ; preds = %57
  %71 = trunc nsw i64 %indvars.iv.next to i32
  %72 = sub nsw i32 %71, %51
  %73 = getelementptr inbounds nuw i8, ptr %1, i64 6
  %74 = load i8, ptr %73, align 2, !tbaa !22
  %75 = zext nneg i8 %74 to i32
  %76 = shl nuw i32 1, %75
  %77 = icmp slt i32 %72, %76
  br i1 %77, label %.lr.ph, label %.loopexit

.lr.ph:                                           ; preds = %70
  %78 = getelementptr inbounds nuw i8, ptr %1, i64 32
  %79 = load ptr, ptr %78, align 8, !tbaa !17
  %80 = sext i32 %indvars.iv57 to i64
  %81 = zext nneg i32 %76 to i64
  br label %84

82:                                               ; preds = %84
  %indvars.iv.next61 = add nsw i64 %indvars.iv60, 1
  %83 = icmp slt i64 %indvars.iv.next61, %81
  br i1 %83, label %84, label %.loopexit, !llvm.loop !23

84:                                               ; preds = %.lr.ph, %82
  %indvars.iv60 = phi i64 [ %80, %.lr.ph ], [ %indvars.iv.next61, %82 ]
  %85 = getelementptr inbounds %struct.LuaNode, ptr %79, i64 %indvars.iv60
  %86 = getelementptr inbounds nuw i8, ptr %85, i64 12
  %87 = load i32, ptr %86, align 4, !tbaa !24
  %88 = icmp eq i32 %87, 0
  br i1 %88, label %82, label %89

89:                                               ; preds = %84
  %90 = getelementptr inbounds nuw i8, ptr %85, i64 16
  %91 = load i64, ptr %90, align 8, !tbaa !16
  store i64 %91, ptr %2, align 8, !tbaa !16
  %92 = getelementptr inbounds nuw i8, ptr %2, i64 8
  %93 = getelementptr inbounds nuw i8, ptr %85, i64 24
  %94 = load i32, ptr %93, align 8
  store i32 %94, ptr %92, align 8
  %95 = getelementptr inbounds nuw i8, ptr %85, i64 28
  %96 = load i32, ptr %95, align 4
  %97 = and i32 %96, 15
  store i32 %97, ptr %4, align 4, !tbaa !4
  %98 = load ptr, ptr %78, align 8, !tbaa !17
  %99 = getelementptr inbounds %struct.LuaNode, ptr %98, i64 %indvars.iv60
  br label %.loopexit.sink.split

.loopexit.sink.split:                             ; preds = %64, %89
  %.sink68 = phi ptr [ %99, %89 ], [ %69, %64 ]
  %100 = getelementptr inbounds nuw i8, ptr %2, i64 16
  tail call void @llvm.memcpy.p0.p0.i64(ptr noundef nonnull align 8 dereferenceable(16) %100, ptr noundef nonnull align 8 dereferenceable(16) %.sink68, i64 16, i1 false)
  br label %.loopexit

.loopexit:                                        ; preds = %82, %.loopexit.sink.split, %70
  %.0 = phi i32 [ 0, %70 ], [ 1, %.loopexit.sink.split ], [ 0, %82 ]
  ret i32 %.0
}